target datalayout = "e-m:e-p270:32:32-p271:32:32-p272:64:64-i64:64-i128:128-f80:128-n8:16:32:64-S128"
target triple = "x86_64-unknown-linux-gnu"

%"struct.facebook::velox::StlAllocator" = type { ptr }
%"struct.facebook::velox::StlAllocator.2" = type { ptr }
%"class.facebook::velox::common::hll::DenseHll" = type { i8, i8, i32, %"class.std::vector", i16, %"class.std::vector.0", %"class.std::vector" }
%"class.std::vector.0" = type { %"struct.std::_Vector_base.1" }
%"struct.std::_Vector_base.1" = type { %"struct.std::_Vector_base<unsigned short, facebook::velox::StlAllocator<unsigned short>>::_Vector_impl" }
%"struct.std::_Vector_base<unsigned short, facebook::velox::StlAllocator<unsigned short>>::_Vector_impl" = type { %"struct.facebook::velox::StlAllocator.2", %"struct.std::_Vector_base<unsigned short, facebook::velox::StlAllocator<unsigned short>>::_Vector_impl_data" }
%"struct.std::_Vector_base<unsigned short, facebook::velox::StlAllocator<unsigned short>>::_Vector_impl_data" = type { ptr, ptr, ptr }
%"class.std::vector" = type { %"struct.std::_Vector_base" }
%"struct.std::_Vector_base" = type { %"struct.std::_Vector_base<signed char, facebook::velox::StlAllocator<signed char>>::_Vector_impl" }
%"struct.std::_Vector_base<signed char, facebook::velox::StlAllocator<signed char>>::_Vector_impl" = type { %"struct.facebook::velox::StlAllocator", %"struct.std::_Vector_base<signed char, facebook::velox::StlAllocator<signed char>>::_Vector_impl_data" }
%"struct.std::_Vector_base<signed char, facebook::velox::StlAllocator<signed char>>::_Vector_impl_data" = type { ptr, ptr, ptr }

; Function Attrs: mustprogress nounwind uwtable
define linkonce_odr noundef ptr @_ZNKSt6vectorIaN8facebook5velox12StlAllocatorIaEEE11_M_data_ptrIaEEPT_S7_(ptr noundef nonnull align 8 dereferenceable(32) %this, ptr noundef %__ptr) #1 comdat align 2 {
entry:
  %this.addr = alloca ptr, align 8
  %__ptr.addr = alloca ptr, align 8
  store ptr %this, ptr %this.addr, align 8
  store ptr %__ptr, ptr %__ptr.addr, align 8
  %0 = load ptr, ptr %__ptr.addr, align 8
  ret ptr %0
}

; Function Attrs: mustprogress nounwind uwtable
define linkonce_odr noundef ptr @_ZNKSt6vectorItN8facebook5velox12StlAllocatorItEEE11_M_data_ptrItEEPT_S7_(ptr noundef nonnull align 8 dereferenceable(32) %this, ptr noundef %__ptr) #1 comdat align 2 {
entry:
  %this.addr = alloca ptr, align 8
  %__ptr.addr = alloca ptr, align 8
  store ptr %this, ptr %this.addr, align 8
  store ptr %__ptr, ptr %__ptr.addr, align 8
  %0 = load ptr, ptr %__ptr.addr, align 8
  ret ptr %0
}

; Function Attrs: mustprogress nounwind uwtable
define linkonce_odr noundef ptr @_ZNSt6vectorIaN8facebook5velox12StlAllocatorIaEEE4dataEv(ptr noundef nonnull align 8 dereferenceable(32) %this) #1 comdat align 2 {
entry:
  %this.addr = alloca ptr, align 8
  store ptr %this, ptr %this.addr, align 8
  %this1 = load ptr, ptr %this.addr, align 8
  %_M_impl = getelementptr inbounds %"struct.std::_Vector_base", ptr %this1, i32 0, i32 0
  %add.ptr = getelementptr inbounds i8, ptr %_M_impl, i64 8
  %_M_start = getelementptr inbounds %"struct.std::_Vector_base<signed char, facebook::velox::StlAllocator<signed char>>::_Vector_impl_data", ptr %add.ptr, i32 0, i32 0
  %0 = load ptr, ptr %_M_start, align 8
  %call = call noundef ptr @_ZNKSt6vectorIaN8facebook5velox12StlAllocatorIaEEE11_M_data_ptrIaEEPT_S7_(ptr noundef nonnull align 8 dereferenceable(32) %this1, ptr noundef %0) #9
  ret ptr %call
}

; Function Attrs: mustprogress nounwind uwtable
define linkonce_odr noundef ptr @_ZNSt6vectorItN8facebook5velox12StlAllocatorItEEE4dataEv(ptr noundef nonnull align 8 dereferenceable(32) %this) #1 comdat align 2 {
entry:
  %this.addr = alloca ptr, align 8
  store ptr %this, ptr %this.addr, align 8
  %this1 = load ptr, ptr %this.addr, align 8
  %_M_impl = getelementptr inbounds %"struct.std::_Vector_base.1", ptr %this1, i32 0, i32 0
  %add.ptr = getelementptr inbounds i8, ptr %_M_impl, i64 8
  %_M_start = getelementptr inbounds %"struct.std::_Vector_base<unsigned short, facebook::velox::StlAllocator<unsigned short>>::_Vector_impl_data", ptr %add.ptr, i32 0, i32 0
  %0 = load ptr, ptr %_M_start, align 8
  %call = call noundef ptr @_ZNKSt6vectorItN8facebook5velox12StlAllocatorItEEE11_M_data_ptrItEEPT_S7_(ptr noundef nonnull align 8 dereferenceable(32) %this1, ptr noundef %0) #9
  ret ptr %call
}

; Function Attrs: mustprogress nounwind uwtable
define linkonce_odr noundef nonnull align 1 dereferenceable(1) ptr @_ZNSt6vectorIaN8facebook5velox12StlAllocatorIaEEEixEm(ptr noundef nonnull align 8 dereferenceable(32) %this, i64 noundef %__n) #1 comdat align 2 {
entry:
  %this.addr = alloca ptr, align 8
  %__n.addr = alloca i64, align 8
  store ptr %this, ptr %this.addr, align 8
  store i64 %__n, ptr %__n.addr, align 8
  %this1 = load ptr, ptr %this.addr, align 8
  %_M_impl = getelementptr inbounds %"struct.std::_Vector_base", ptr %this1, i32 0, i32 0
  %add.ptr = getelementptr inbounds i8, ptr %_M_impl, i64 8
  %_M_start = getelementptr inbounds %"struct.std::_Vector_base<signed char, facebook::velox::StlAllocator<signed char>>::_Vector_impl_data", ptr %add.ptr, i32 0, i32 0
  %0 = load ptr, ptr %_M_start, align 8
  %1 = load i64, ptr %__n.addr, align 8
  %add.ptr2 = getelementptr inbounds i8, ptr %0, i64 %1
  ret ptr %add.ptr2
}

; Function Attrs: mustprogress nounwind uwtable
define linkonce_odr noundef nonnull align 2 dereferenceable(2) ptr @_ZNSt6vectorItN8facebook5velox12StlAllocatorItEEEixEm(ptr noundef nonnull align 8 dereferenceable(32) %this, i64 noundef %__n) #1 comdat align 2 {
entry:
  %this.addr = alloca ptr, align 8
  %__n.addr = alloca i64, align 8
  store ptr %this, ptr %this.addr, align 8
  store i64 %__n, ptr %__n.addr, align 8
  %this1 = load ptr, ptr %this.addr, align 8
  %_M_impl = getelementptr inbounds %"struct.std::_Vector_base.1", ptr %this1, i32 0, i32 0
  %add.ptr = getelementptr inbounds i8, ptr %_M_impl, i64 8
  %_M_start = getelementptr inbounds %"struct.std::_Vector_base<unsigned short, facebook::velox::StlAllocator<unsigned short>>::_Vector_impl_data", ptr %add.ptr, i32 0, i32 0
  %0 = load ptr, ptr %_M_start, align 8
  %1 = load i64, ptr %__n.addr, align 8
  %add.ptr2 = getelementptr inbounds i16, ptr %0, i64 %1
  ret ptr %add.ptr2
}

; Function Attrs: mustprogress nounwind uwtable
define void @_ZN8facebook5velox6common3hll8DenseHll13sortOverflowsEv(ptr noundef nonnull align 8 dereferenceable(112) %this) #1 align 2 {
entry:
  %this.addr = alloca ptr, align 8
  %i = alloca i32, align 4
  %bucket = alloca i16, align 2
  %j = alloca i32, align 4
  %value = alloca i8, align 1
  store ptr %this, ptr %this.addr, align 8
  %this1 = load ptr, ptr %this.addr, align 8
  store i32 1, ptr %i, align 4
  br label %for.cond

for.cond:                                         ; preds = %for.inc48, %entry
  %0 = load i32, ptr %i, align 4
  %overflows_ = getelementptr inbounds %"class.facebook::velox::common::hll::DenseHll", ptr %this1, i32 0, i32 4
  %1 = load i16, ptr %overflows_, align 8
  %conv = sext i16 %1 to i32
  %cmp = icmp slt i32 %0, %conv
  br i1 %cmp, label %for.body, label %for.end49

for.body:                                         ; preds = %for.cond
  %overflowBuckets_ = getelementptr inbounds %"class.facebook::velox::common::hll::DenseHll", ptr %this1, i32 0, i32 5
  %2 = load i32, ptr %i, align 4
  %conv2 = sext i32 %2 to i64
  %call = call noundef nonnull align 2 dereferenceable(2) ptr @_ZNSt6vectorItN8facebook5velox12StlAllocatorItEEEixEm(ptr noundef nonnull align 8 dereferenceable(32) %overflowBuckets_, i64 noundef %conv2) #9
  %3 = load i16, ptr %call, align 2
  store i16 %3, ptr %bucket, align 2
  %4 = load i32, ptr %i, align 4
  %sub = sub nsw i32 %4, 1
  store i32 %sub, ptr %j, align 4
  br label %for.cond3

for.cond3:                                        ; preds = %for.inc, %for.body
  %5 = load i32, ptr %j, align 4
  %cmp4 = icmp sge i32 %5, 0
  br i1 %cmp4, label %land.rhs, label %land.end

land.rhs:                                         ; preds = %for.cond3
  %overflowBuckets_5 = getelementptr inbounds %"class.facebook::velox::common::hll::DenseHll", ptr %this1, i32 0, i32 5
  %6 = load i32, ptr %j, align 4
  %conv6 = sext i32 %6 to i64
  %call7 = call noundef nonnull align 2 dereferenceable(2) ptr @_ZNSt6vectorItN8facebook5velox12StlAllocatorItEEEixEm(ptr noundef nonnull align 8 dereferenceable(32) %overflowBuckets_5, i64 noundef %conv6) #9
  %7 = load i16, ptr %call7, align 2
  %conv8 = zext i16 %7 to i32
  %8 = load i16, ptr %bucket, align 2
  %conv9 = zext i16 %8 to i32
  %cmp10 = icmp sgt i32 %conv8, %conv9
  br label %land.end

land.end:                                         ; preds = %land.rhs, %for.cond3
  %9 = phi i1 [ false, %for.cond3 ], [ %cmp10, %land.rhs ]
  br i1 %9, label %for.body11, label %for.end

for.body11:                                       ; preds = %land.end
  br label %for.inc

for.inc:                                          ; preds = %for.body11
  %10 = load i32, ptr %j, align 4
  %dec = add nsw i32 %10, -1
  store i32 %dec, ptr %j, align 4
  br label %for.cond3, !llvm.loop !12

for.end:                                          ; preds = %land.end
  %11 = load i32, ptr %j, align 4
  %add = add nsw i32 %11, 1
  %12 = load i32, ptr %i, align 4
  %cmp12 = icmp slt i32 %add, %12
  br i1 %cmp12, label %if.then, label %if.end

if.then:                                          ; preds = %for.end
  %overflowValues_ = getelementptr inbounds %"class.facebook::velox::common::hll::DenseHll", ptr %this1, i32 0, i32 6
  %13 = load i32, ptr %i, align 4
  %conv13 = sext i32 %13 to i64
  %call14 = call noundef nonnull align 1 dereferenceable(1) ptr @_ZNSt6vectorIaN8facebook5velox12StlAllocatorIaEEEixEm(ptr noundef nonnull align 8 dereferenceable(32) %overflowValues_, i64 noundef %conv13) #9
  %14 = load i8, ptr %call14, align 1
  store i8 %14, ptr %value, align 1
  %overflowBuckets_15 = getelementptr inbounds %"class.facebook::velox::common::hll::DenseHll", ptr %this1, i32 0, i32 5
  %call16 = call noundef ptr @_ZNSt6vectorItN8facebook5velox12StlAllocatorItEEE4dataEv(ptr noundef nonnull align 8 dereferenceable(32) %overflowBuckets_15) #9
  %15 = load i32, ptr %j, align 4
  %idx.ext = sext i32 %15 to i64
  %add.ptr = getelementptr inbounds i16, ptr %call16, i64 %idx.ext
  %add.ptr17 = getelementptr inbounds i16, ptr %add.ptr, i64 2
  %overflowBuckets_18 = getelementptr inbounds %"class.facebook::velox::common::hll::DenseHll", ptr %this1, i32 0, i32 5
  %call19 = call noundef ptr @_ZNSt6vectorItN8facebook5velox12StlAllocatorItEEE4dataEv(ptr noundef nonnull align 8 dereferenceable(32) %overflowBuckets_18) #9
  %16 = load i32, ptr %j, align 4
  %idx.ext20 = sext i32 %16 to i64
  %add.ptr21 = getelementptr inbounds i16, ptr %call19, i64 %idx.ext20
  %add.ptr22 = getelementptr inbounds i16, ptr %add.ptr21, i64 1
  %17 = load i32, ptr %i, align 4
  %18 = load i32, ptr %j, align 4
  %sub23 = sub nsw i32 %17, %18
  %sub24 = sub nsw i32 %sub23, 1
  %conv25 = sext i32 %sub24 to i64
  %mul = mul i64 2, %conv25
  call void @llvm.memmove.p0.p0.i64(ptr align 2 %add.ptr17, ptr align 2 %add.ptr22, i64 %mul, i1 false)
  %overflowValues_26 = getelementptr inbounds %"class.facebook::velox::common::hll::DenseHll", ptr %this1, i32 0, i32 6
  %call27 = call noundef ptr @_ZNSt6vectorIaN8facebook5velox12StlAllocatorIaEEE4dataEv(ptr noundef nonnull align 8 dereferenceable(32) %overflowValues_26) #9
  %19 = load i32, ptr %j, align 4
  %idx.ext28 = sext i32 %19 to i64
  %add.ptr29 = getelementptr inbounds i8, ptr %call27, i64 %idx.ext28
  %add.ptr30 = getelementptr inbounds i8, ptr %add.ptr29, i64 2
  %overflowValues_31 = getelementptr inbounds %"class.facebook::velox::common::hll::DenseHll", ptr %this1, i32 0, i32 6
  %call32 = call noundef ptr @_ZNSt6vectorIaN8facebook5velox12StlAllocatorIaEEE4dataEv(ptr noundef nonnull align 8 dereferenceable(32) %overflowValues_31) #9
  %20 = load i32, ptr %j, align 4
  %idx.ext33 = sext i32 %20 to i64
  %add.ptr34 = getelementptr inbounds i8, ptr %call32, i64 %idx.ext33
  %add.ptr35 = getelementptr inbounds i8, ptr %add.ptr34, i64 1
  %21 = load i32, ptr %i, align 4
  %22 = load i32, ptr %j, align 4
  %sub36 = sub nsw i32 %21, %22
  %sub37 = sub nsw i32 %sub36, 1
  %conv38 = sext i32 %sub37 to i64
  %mul39 = mul i64 1, %conv38
  call void @llvm.memmove.p0.p0.i64(ptr align 1 %add.ptr30, ptr align 1 %add.ptr35, i64 %mul39, i1 false)
  %23 = load i16, ptr %bucket, align 2
  %overflowBuckets_40 = getelementptr inbounds %"class.facebook::velox::common::hll::DenseHll", ptr %this1, i32 0, i32 5
  %24 = load i32, ptr %j, align 4
  %add41 = add nsw i32 %24, 1
  %conv42 = sext i32 %add41 to i64
  %call43 = call noundef nonnull align 2 dereferenceable(2) ptr @_ZNSt6vectorItN8facebook5velox12StlAllocatorItEEEixEm(ptr noundef nonnull align 8 dereferenceable(32) %overflowBuckets_40, i64 noundef %conv42) #9
  store i16 %23, ptr %call43, align 2
  %25 = load i8, ptr %value, align 1
  %overflowValues_44 = getelementptr inbounds %"class.facebook::velox::common::hll::DenseHll", ptr %this1, i32 0, i32 6
  %26 = load i32, ptr %j, align 4
  %add45 = add nsw i32 %26, 1
  %conv46 = sext i32 %add45 to i64
  %call47 = call noundef nonnull align 1 dereferenceable(1) ptr @_ZNSt6vectorIaN8facebook5velox12StlAllocatorIaEEEixEm(ptr noundef nonnull align 8 dereferenceable(32) %overflowValues_44, i64 noundef %conv46) #9
  store i8 %25, ptr %call47, align 1
  br label %if.end

if.end:                                           ; preds = %if.then, %for.end
  br label %for.inc48

for.inc48:                                        ; preds = %if.end
  %27 = load i32, ptr %i, align 4
  %inc = add nsw i32 %27, 1
  store i32 %inc, ptr %i, align 4
  br label %for.cond, !llvm.loop !13

for.end49:                                        ; preds = %for.cond
  ret void
}