; Function Attrs: mustprogress nofree norecurse nosync nounwind memory(readwrite, inaccessiblemem: none) uwtable
define void @_ZN8facebook5velox6common3hll8DenseHll13sortOverflowsEv(ptr noundef nonnull readonly align 8 captures(none) dereferenceable(112) %this) local_unnamed_addr #7 align 2 {
entry:
  %overflows_ = getelementptr inbounds nuw i8, ptr %this, i64 40
  %0 = load i16, ptr %overflows_, align 8
  %cmp33 = icmp sgt i16 %0, 1
  br i1 %cmp33, label %for.body.lr.ph, label %for.end49

for.body.lr.ph:                                   ; preds = %entry
  %add.ptr.i = getelementptr inbounds nuw i8, ptr %this, i64 56
  %add.ptr.i22 = getelementptr inbounds nuw i8, ptr %this, i64 88
  br label %for.body

for.body:                                         ; preds = %for.body.lr.ph, %for.inc48
  %1 = phi i16 [ %0, %for.body.lr.ph ], [ %15, %for.inc48 ]
  %indvars.iv = phi i64 [ 1, %for.body.lr.ph ], [ %indvars.iv.next, %for.inc48 ]
  %2 = load ptr, ptr %add.ptr.i, align 8
  %add.ptr2.i = getelementptr inbounds nuw i16, ptr %2, i64 %indvars.iv
  %3 = load i16, ptr %add.ptr2.i, align 2
  br label %for.cond3

for.cond3:                                        ; preds = %land.rhs, %for.body
  %indvars.iv35 = phi i64 [ %indvars.iv.next36, %land.rhs ], [ %indvars.iv, %for.body ]
  %cmp4 = icmp sgt i64 %indvars.iv35, 0
  br i1 %cmp4, label %land.rhs, label %for.end

land.rhs:                                         ; preds = %for.cond3
  %indvars.iv.next36 = add nsw i64 %indvars.iv35, -1
  %add.ptr2.i21 = getelementptr inbounds nuw i16, ptr %2, i64 %indvars.iv.next36
  %4 = load i16, ptr %add.ptr2.i21, align 2
  %cmp10 = icmp ugt i16 %4, %3
  br i1 %cmp10, label %for.cond3, label %for.end.split.loop.exit39, !llvm.loop !16

for.end.split.loop.exit39:                        ; preds = %land.rhs
  %5 = trunc nuw nsw i64 %indvars.iv35 to i32
  %6 = shl i64 %indvars.iv.next36, 32
  %7 = ashr exact i64 %6, 32
  br label %for.end

for.end:                                          ; preds = %for.cond3, %for.end.split.loop.exit39
  %j.0.in.lcssa = phi i32 [ %5, %for.end.split.loop.exit39 ], [ 0, %for.cond3 ]
  %j.0.lcssa = phi i64 [ %7, %for.end.split.loop.exit39 ], [ -1, %for.cond3 ]
  %8 = sext i32 %j.0.in.lcssa to i64
  %cmp12 = icmp sgt i64 %indvars.iv, %8
  br i1 %cmp12, label %if.then, label %for.inc48

if.then:                                          ; preds = %for.end
  %9 = load ptr, ptr %add.ptr.i22, align 8
  %add.ptr2.i23 = getelementptr inbounds nuw i8, ptr %9, i64 %indvars.iv
  %10 = load i8, ptr %add.ptr2.i23, align 1
  %add.ptr = getelementptr inbounds i16, ptr %2, i64 %j.0.lcssa
  %add.ptr17 = getelementptr inbounds nuw i8, ptr %add.ptr, i64 4
  %add.ptr22 = getelementptr inbounds nuw i8, ptr %add.ptr, i64 2
  %11 = trunc nuw nsw i64 %indvars.iv to i32
  %sub24 = sub i32 %11, %j.0.in.lcssa
  %conv25 = sext i32 %sub24 to i64
  %mul = shl nsw i64 %conv25, 1
  tail call void @llvm.memmove.p0.p0.i64(ptr nonnull align 2 %add.ptr17, ptr nonnull align 2 %add.ptr22, i64 %mul, i1 false)
  %12 = load ptr, ptr %add.ptr.i22, align 8
  %add.ptr29 = getelementptr inbounds i8, ptr %12, i64 %j.0.lcssa
  %add.ptr30 = getelementptr inbounds nuw i8, ptr %add.ptr29, i64 2
  %add.ptr35 = getelementptr inbounds nuw i8, ptr %add.ptr29, i64 1
  tail call void @llvm.memmove.p0.p0.i64(ptr nonnull align 1 %add.ptr30, ptr nonnull align 1 %add.ptr35, i64 %conv25, i1 false)
  %13 = load ptr, ptr %add.ptr.i, align 8
  %add.ptr2.i29 = getelementptr inbounds i16, ptr %13, i64 %8
  store i16 %3, ptr %add.ptr2.i29, align 2
  %14 = load ptr, ptr %add.ptr.i22, align 8
  %add.ptr2.i31 = getelementptr inbounds i8, ptr %14, i64 %8
  store i8 %10, ptr %add.ptr2.i31, align 1
  %.pre = load i16, ptr %overflows_, align 8
  br label %for.inc48

for.inc48:                                        ; preds = %for.end, %if.then
  %15 = phi i16 [ %1, %for.end ], [ %.pre, %if.then ]
  %indvars.iv.next = add nuw nsw i64 %indvars.iv, 1
  %16 = sext i16 %15 to i64
  %cmp = icmp slt i64 %indvars.iv.next, %16
  br i1 %cmp, label %for.body, label %for.end49, !llvm.loop !17

for.end49:                                        ; preds = %for.inc48, %entry
  ret void
}